(lp0
S'poi'
p1
aS'salary'
p2
aS'bonus'
p3
aS'exercised_stock_options'
p4
aS'total_payments'
p5
aS'restricted_stock'
p6
aS'total_stock_value'
p7
aS'expenses'
p8
aS'fraction_from_poi'
p9
aS'fraction_to_poi'
p10
a.